; Function Attrs: mustprogress uwtable
define noundef ptr @_ZN6icu_759LocaleKey27createWithCanonicalFallbackEPKNS_13UnicodeStringES3_iR10UErrorCode(ptr noundef %primaryID, ptr noundef %canonicalFallbackID, i32 noundef %kind, ptr nocapture noundef nonnull readonly align 4 dereferenceable(4) %status) local_unnamed_addr #1 align 2 personality ptr @__gxx_personality_v0 {
entry:
  %canonicalPrimaryID = alloca %"class.icu_75::UnicodeString", align 8
  %cmp = icmp ne ptr %primaryID, null
  %0 = load i32, ptr %status, align 4
  %cmp.i = icmp slt i32 %0, 1
  %or.cond = select i1 %cmp, i1 %cmp.i, i1 false
  br i1 %or.cond, label %if.end, label %return

if.end:                                           ; preds = %entry
  store ptr getelementptr inbounds ({ [13 x ptr] }, ptr @_ZTVN6icu_7513UnicodeStringE, i64 0, i32 0, i64 2), ptr %canonicalPrimaryID, align 8
  %fUnion2.i = getelementptr inbounds i8, ptr %canonicalPrimaryID, i64 8
  store i16 2, ptr %fUnion2.i, align 8
  %call1 = invoke noundef nonnull align 8 dereferenceable(64) ptr @_ZN6icu_7513LocaleUtility21canonicalLocaleStringEPKNS_13UnicodeStringERS1_(ptr noundef nonnull %primaryID, ptr noundef nonnull align 8 dereferenceable(64) %canonicalPrimaryID)
          to label %invoke.cont unwind label %lpad

invoke.cont:                                      ; preds = %if.end
  %call2 = call noundef ptr @_ZN6icu_757UMemorynwEm(i64 noundef 272) #11
  %new.isnull = icmp eq ptr %call2, null
  br i1 %new.isnull, label %new.cont, label %new.notnull

new.notnull:                                      ; preds = %invoke.cont
  invoke void @_ZN6icu_759LocaleKeyC1ERKNS_13UnicodeStringES3_PS2_i(ptr noundef nonnull align 8 dereferenceable(272) %call2, ptr noundef nonnull align 8 dereferenceable(64) %primaryID, ptr noundef nonnull align 8 dereferenceable(64) %canonicalPrimaryID, ptr noundef %canonicalFallbackID, i32 noundef %kind)
          to label %new.cont unwind label %lpad3

new.cont:                                         ; preds = %new.notnull, %invoke.cont
  call void @_ZN6icu_7513UnicodeStringD1Ev(ptr noundef nonnull align 8 dereferenceable(64) %canonicalPrimaryID) #11
  br label %return

lpad:                                             ; preds = %if.end
  %1 = landingpad { ptr, i32 }
          cleanup
  br label %ehcleanup

lpad3:                                            ; preds = %new.notnull
  %2 = landingpad { ptr, i32 }
          cleanup
  call void @_ZN6icu_757UMemorydlEPv(ptr noundef nonnull %call2) #11
  br label %ehcleanup

ehcleanup:                                        ; preds = %lpad3, %lpad
  %.pn = phi { ptr, i32 } [ %2, %lpad3 ], [ %1, %lpad ]
  call void @_ZN6icu_7513UnicodeStringD1Ev(ptr noundef nonnull align 8 dereferenceable(64) %canonicalPrimaryID) #11
  resume { ptr, i32 } %.pn

return:                                           ; preds = %entry, %new.cont
  %retval.0 = phi ptr [ %call2, %new.cont ], [ null, %entry ]
  ret ptr %retval.0
}